; Function Attrs: mustprogress nounwind uwtable
define hidden void @_ZN17DependencyContext49remove_and_mark_for_deoptimization_all_dependentsEP19DeoptimizationScope(ptr nocapture noundef nonnull readonly align 8 dereferenceable(16) %0, ptr noundef %1) local_unnamed_addr #0 align 2 {
  %3 = tail call noundef ptr @_ZN17DependencyContext26dependencies_not_unloadingEv(ptr noundef nonnull align 8 dereferenceable(16) %0)
  %4 = load ptr, ptr %0, align 8
  store volatile ptr null, ptr %4, align 8
  %.not6 = icmp eq ptr %3, null
  br i1 %.not6, label %._crit_edge, label %.lr.ph

.lr.ph:                                           ; preds = %2, %_ZN17DependencyContext34release_and_get_next_not_unloadingEP13nmethodBucket.exit
  %.07 = phi ptr [ %6, %_ZN17DependencyContext34release_and_get_next_not_unloadingEP13nmethodBucket.exit ], [ %3, %2 ]
  %5 = load ptr, ptr %.07, align 8
  tail call void @_ZN19DeoptimizationScope4markEP7nmethodb(ptr noundef nonnull align 8 dereferenceable(8) %1, ptr noundef %5, i1 noundef zeroext true) #12
  %6 = tail call noundef ptr @_ZN13nmethodBucket18next_not_unloadingEv(ptr noundef nonnull align 8 dereferenceable(24) %.07)
  %7 = load volatile i64, ptr @_ZN17DependencyContext15_cleaning_epochE, align 8
  %8 = icmp eq i64 %7, 0
  br i1 %8, label %10, label %.preheader.i.i

.preheader.i.i:                                   ; preds = %.lr.ph
  %9 = getelementptr inbounds i8, ptr %.07, i64 16
  br label %13

10:                                               ; preds = %.lr.ph
  tail call void @_Z8FreeHeapPv(ptr noundef nonnull %.07) #12
  %11 = load i8, ptr @UsePerfData, align 1
  %12 = trunc i8 %11 to i1
  br i1 %12, label %.sink.split.i.i, label %_ZN17DependencyContext34release_and_get_next_not_unloadingEP13nmethodBucket.exit

13:                                               ; preds = %13, %.preheader.i.i
  %14 = load volatile ptr, ptr @_ZN17DependencyContext11_purge_listE, align 8
  store volatile ptr %14, ptr %9, align 8
  %15 = tail call noundef ptr asm sideeffect "lock cmpxchgq $1,($3)", "={ax},r,{ax},r,~{cc},~{memory},~{dirflag},~{fpsr},~{flags}"(ptr nonnull %.07, ptr %14, ptr nonnull @_ZN17DependencyContext11_purge_listE) #12, !srcloc !9
  %16 = icmp eq ptr %15, %14
  br i1 %16, label %17, label %13, !llvm.loop !10

17:                                               ; preds = %13
  %18 = load i8, ptr @UsePerfData, align 1
  %19 = trunc i8 %18 to i1
  br i1 %19, label %20, label %_ZN17DependencyContext34release_and_get_next_not_unloadingEP13nmethodBucket.exit

20:                                               ; preds = %17
  %21 = load ptr, ptr @_ZN17DependencyContext31_perf_total_buckets_stale_countE, align 8
  %22 = getelementptr inbounds i8, ptr %21, i64 40
  %23 = load ptr, ptr %22, align 8
  %24 = load i64, ptr %23, align 8
  %25 = add nsw i64 %24, 1
  store i64 %25, ptr %23, align 8
  br label %.sink.split.i.i

.sink.split.i.i:                                  ; preds = %20, %10
  %_ZN17DependencyContext35_perf_total_buckets_stale_acc_countE.sink.i.i = phi ptr [ @_ZN17DependencyContext35_perf_total_buckets_stale_acc_countE, %20 ], [ @_ZN17DependencyContext37_perf_total_buckets_deallocated_countE, %10 ]
  %26 = load ptr, ptr %_ZN17DependencyContext35_perf_total_buckets_stale_acc_countE.sink.i.i, align 8
  %27 = getelementptr inbounds i8, ptr %26, i64 40
  %28 = load ptr, ptr %27, align 8
  %29 = load i64, ptr %28, align 8
  %30 = add nsw i64 %29, 1
  store i64 %30, ptr %28, align 8
  br label %_ZN17DependencyContext34release_and_get_next_not_unloadingEP13nmethodBucket.exit

_ZN17DependencyContext34release_and_get_next_not_unloadingEP13nmethodBucket.exit: ; preds = %10, %17, %.sink.split.i.i
  %.not = icmp eq ptr %6, null
  br i1 %.not, label %._crit_edge, label %.lr.ph, !llvm.loop !19

._crit_edge:                                      ; preds = %_ZN17DependencyContext34release_and_get_next_not_unloadingEP13nmethodBucket.exit, %2
  ret void
}